target datalayout = "e-m:e-p270:32:32-p271:32:32-p272:64:64-i64:64-i128:128-f80:128-n8:16:32:64-S128"
target triple = "x86_64-pc-linux-gnu"

%struct.AVFormatContext = type { ptr, ptr, ptr, ptr, ptr, i32, i32, ptr, i32, ptr, i32, ptr, ptr, i64, i64, i64, i32, i32, i32, i64, i64, ptr, i32, i32, ptr, i32, i32, i32, i32, ptr, i64, i32, i32, %struct.AVIOInterruptCB, i32, i32, i32, i32, i64, i32, i32, i32, i32, i32, i32, i32, i32, i32, i32, i32, i32, i64, i32, i32, i32, i32, i32, ptr, ptr, ptr, ptr, i32, ptr, ptr, ptr, ptr, i32, ptr, ptr, i64, ptr, ptr, ptr, i64 }
%struct.AVIOInterruptCB = type { ptr, ptr }
%struct.ogg = type { ptr, i32, i32, i32, i64, ptr }
%struct.ogg_stream = type { ptr, i32, i32, i32, i32, i32, i32, i32, i64, i64, i64, i64, i64, i64, i32, ptr, i32, i32, i32, [255 x i8], i32, i32, i32, i32, i32, i32, i32, i32, ptr, i64, ptr }
%struct.AVStream = type { ptr, i32, i32, ptr, ptr, %struct.AVRational, i64, i64, i64, i32, i32, %struct.AVRational, ptr, %struct.AVRational, %struct.AVPacket, i32, %struct.AVRational, i32 }
%struct.AVPacket = type { ptr, i64, i64, ptr, i32, i32, i32, ptr, i32, i64, i64, ptr, ptr, %struct.AVRational }
%struct.AVRational = type { i32, i32 }
%struct.AVCodecParameters = type { i32, i32, i32, ptr, i32, ptr, i32, i32, i64, i32, i32, i32, i32, i32, i32, %struct.AVRational, %struct.AVRational, i32, i32, i32, i32, i32, i32, i32, %struct.AVChannelLayout, i32, i32, i32, i32, i32, i32 }
%struct.AVChannelLayout = type { i32, i32, %union.anon, ptr }
%union.anon = type { i64 }
%struct.AVCodecParserContext = type { ptr, ptr, i64, i64, i64, i32, i32, i64, i64, i64, i64, i32, i32, [4 x i64], [4 x i64], [4 x i64], i32, i64, [4 x i64], i32, i32, i32, i32, [4 x i64], i64, i64, i32, i32, i32, i32, i32, i32, i32, i32, i32 }
%struct.AVCodecContext = type { ptr, i32, i32, ptr, i32, i32, ptr, ptr, ptr, i64, i32, i32, ptr, i32, %struct.AVRational, %struct.AVRational, %struct.AVRational, i32, i32, i32, i32, i32, %struct.AVRational, i32, i32, i32, i32, i32, i32, i32, i32, i32, i32, i32, ptr, ptr, i32, float, float, float, float, float, float, float, float, float, i32, i32, i32, i32, i32, i32, i32, i32, i32, i32, i32, i32, ptr, ptr, ptr, i32, i32, i32, i32, i32, i32, i32, i32, i32, i32, %struct.AVChannelLayout, i32, i32, i32, i32, i32, i32, i32, i32, ptr, i32, i32, i32, float, float, i32, i32, i32, i32, i32, ptr, i64, i64, float, float, i32, i32, ptr, ptr, i32, i32, i32, i32, i32, ptr, ptr, ptr, ptr, i32, i32, [8 x i64], i32, i32, i32, i32, i32, i32, i32, ptr, ptr, i32, i32, i32, i32, i32, i32, i32, i32, i32, i32, ptr, ptr, i32, i32, ptr, ptr, ptr, ptr, i32, i32, i64, i32, i32, i64, ptr, i64, ptr, i32, ptr, i32 }

; Function Attrs: nounwind uwtable
define internal i32 @old_flac_header(ptr noundef %0, i32 noundef %1) #0 {
  %3 = alloca i32, align 4
  %4 = alloca ptr, align 8
  %5 = alloca i32, align 4
  %6 = alloca ptr, align 8
  %7 = alloca ptr, align 8
  %8 = alloca ptr, align 8
  %9 = alloca ptr, align 8
  %10 = alloca ptr, align 8
  %11 = alloca i32, align 4
  %12 = alloca i32, align 4
  %13 = alloca ptr, align 8
  %14 = alloca i32, align 4
  store ptr %0, ptr %4, align 8, !tbaa !4
  store i32 %1, ptr %5, align 4, !tbaa !9
  call void @llvm.lifetime.start.p0(i64 8, ptr %6) #8
  %15 = load ptr, ptr %4, align 8, !tbaa !4
  %16 = getelementptr inbounds nuw %struct.AVFormatContext, ptr %15, i32 0, i32 3
  %17 = load ptr, ptr %16, align 8, !tbaa !11
  store ptr %17, ptr %6, align 8, !tbaa !27
  call void @llvm.lifetime.start.p0(i64 8, ptr %7) #8
  %18 = load ptr, ptr %4, align 8, !tbaa !4
  %19 = getelementptr inbounds nuw %struct.AVFormatContext, ptr %18, i32 0, i32 7
  %20 = load ptr, ptr %19, align 8, !tbaa !34
  %21 = load i32, ptr %5, align 4, !tbaa !9
  %22 = sext i32 %21 to i64
  %23 = getelementptr inbounds ptr, ptr %20, i64 %22
  %24 = load ptr, ptr %23, align 8, !tbaa !35
  store ptr %24, ptr %7, align 8, !tbaa !35
  call void @llvm.lifetime.start.p0(i64 8, ptr %8) #8
  %25 = load ptr, ptr %6, align 8, !tbaa !27
  %26 = getelementptr inbounds nuw %struct.ogg, ptr %25, i32 0, i32 0
  %27 = load ptr, ptr %26, align 8, !tbaa !29
  %28 = load i32, ptr %5, align 4, !tbaa !9
  %29 = sext i32 %28 to i64
  %30 = getelementptr inbounds %struct.ogg_stream, ptr %27, i64 %29
  store ptr %30, ptr %8, align 8, !tbaa !33
  call void @llvm.lifetime.start.p0(i64 8, ptr %9) #8
  %31 = call ptr @av_parser_init(i32 noundef 86028)
  store ptr %31, ptr %9, align 8, !tbaa !67
  call void @llvm.lifetime.start.p0(i64 8, ptr %10) #8
  call void @llvm.lifetime.start.p0(i64 4, ptr %11) #8
  call void @llvm.lifetime.start.p0(i64 4, ptr %12) #8
  call void @llvm.lifetime.start.p0(i64 8, ptr %13) #8
  %32 = load ptr, ptr %9, align 8, !tbaa !67
  %33 = icmp ne ptr %32, null
  br i1 %33, label %35, label %34

34:                                               ; preds = %2
  store i32 -1, ptr %3, align 4
  store i32 1, ptr %14, align 4
  br label %88

35:                                               ; preds = %2
  %36 = load ptr, ptr %7, align 8, !tbaa !35
  %37 = getelementptr inbounds nuw %struct.AVStream, ptr %36, i32 0, i32 3
  %38 = load ptr, ptr %37, align 8, !tbaa !43
  %39 = getelementptr inbounds nuw %struct.AVCodecParameters, ptr %38, i32 0, i32 0
  store i32 1, ptr %39, align 8, !tbaa !50
  %40 = load ptr, ptr %7, align 8, !tbaa !35
  %41 = getelementptr inbounds nuw %struct.AVStream, ptr %40, i32 0, i32 3
  %42 = load ptr, ptr %41, align 8, !tbaa !43
  %43 = getelementptr inbounds nuw %struct.AVCodecParameters, ptr %42, i32 0, i32 1
  store i32 86028, ptr %43, align 4, !tbaa !53
  %44 = call ptr @avcodec_alloc_context3(ptr noundef null)
  store ptr %44, ptr %10, align 8, !tbaa !68
  %45 = load ptr, ptr %10, align 8, !tbaa !68
  %46 = icmp ne ptr %45, null
  br i1 %46, label %48, label %47

47:                                               ; preds = %35
  store i32 -12, ptr %12, align 4, !tbaa !9
  br label %85

48:                                               ; preds = %35
  %49 = load ptr, ptr %10, align 8, !tbaa !68
  %50 = load ptr, ptr %7, align 8, !tbaa !35
  %51 = getelementptr inbounds nuw %struct.AVStream, ptr %50, i32 0, i32 3
  %52 = load ptr, ptr %51, align 8, !tbaa !43
  %53 = call i32 @avcodec_parameters_to_context(ptr noundef %49, ptr noundef %52)
  store i32 %53, ptr %12, align 4, !tbaa !9
  %54 = load i32, ptr %12, align 4, !tbaa !9
  %55 = icmp slt i32 %54, 0
  br i1 %55, label %56, label %57

56:                                               ; preds = %48
  br label %85

57:                                               ; preds = %48
  %58 = load ptr, ptr %9, align 8, !tbaa !67
  %59 = getelementptr inbounds nuw %struct.AVCodecParserContext, ptr %58, i32 0, i32 16
  store i32 1, ptr %59, align 8, !tbaa !69
  %60 = load ptr, ptr %9, align 8, !tbaa !67
  %61 = load ptr, ptr %10, align 8, !tbaa !68
  %62 = load ptr, ptr %8, align 8, !tbaa !33
  %63 = getelementptr inbounds nuw %struct.ogg_stream, ptr %62, i32 0, i32 0
  %64 = load ptr, ptr %63, align 8, !tbaa !37
  %65 = load ptr, ptr %8, align 8, !tbaa !33
  %66 = getelementptr inbounds nuw %struct.ogg_stream, ptr %65, i32 0, i32 3
  %67 = load i32, ptr %66, align 8, !tbaa !40
  %68 = zext i32 %67 to i64
  %69 = getelementptr inbounds nuw i8, ptr %64, i64 %68
  %70 = load ptr, ptr %8, align 8, !tbaa !33
  %71 = getelementptr inbounds nuw %struct.ogg_stream, ptr %70, i32 0, i32 4
  %72 = load i32, ptr %71, align 4, !tbaa !42
  %73 = call i32 @av_parser_parse2(ptr noundef %60, ptr noundef %61, ptr noundef %13, ptr noundef %11, ptr noundef %69, i32 noundef %72, i64 noundef -9223372036854775808, i64 noundef -9223372036854775808, i64 noundef -1)
  %74 = load ptr, ptr %9, align 8, !tbaa !67
  call void @av_parser_close(ptr noundef %74)
  %75 = load ptr, ptr %10, align 8, !tbaa !68
  %76 = getelementptr inbounds nuw %struct.AVCodecContext, ptr %75, i32 0, i32 69
  %77 = load i32, ptr %76, align 8, !tbaa !72
  %78 = icmp ne i32 %77, 0
  br i1 %78, label %79, label %84

79:                                               ; preds = %57
  %80 = load ptr, ptr %7, align 8, !tbaa !35
  %81 = load ptr, ptr %10, align 8, !tbaa !68
  %82 = getelementptr inbounds nuw %struct.AVCodecContext, ptr %81, i32 0, i32 69
  %83 = load i32, ptr %82, align 8, !tbaa !72
  call void @avpriv_set_pts_info(ptr noundef %80, i32 noundef 64, i32 noundef 1, i32 noundef %83)
  call void @avcodec_free_context(ptr noundef %10)
  store i32 0, ptr %3, align 4
  store i32 1, ptr %14, align 4
  br label %88

84:                                               ; preds = %57
  call void @avcodec_free_context(ptr noundef %10)
  store i32 1, ptr %3, align 4
  store i32 1, ptr %14, align 4
  br label %88

85:                                               ; preds = %56, %47
  %86 = load ptr, ptr %9, align 8, !tbaa !67
  call void @av_parser_close(ptr noundef %86)
  call void @avcodec_free_context(ptr noundef %10)
  %87 = load i32, ptr %12, align 4, !tbaa !9
  store i32 %87, ptr %3, align 4
  store i32 1, ptr %14, align 4
  br label %88

88:                                               ; preds = %85, %84, %79, %34
  call void @llvm.lifetime.end.p0(i64 8, ptr %13) #8
  call void @llvm.lifetime.end.p0(i64 4, ptr %12) #8
  call void @llvm.lifetime.end.p0(i64 4, ptr %11) #8
  call void @llvm.lifetime.end.p0(i64 8, ptr %10) #8
  call void @llvm.lifetime.end.p0(i64 8, ptr %9) #8
  call void @llvm.lifetime.end.p0(i64 8, ptr %8) #8
  call void @llvm.lifetime.end.p0(i64 8, ptr %7) #8
  call void @llvm.lifetime.end.p0(i64 8, ptr %6) #8
  %89 = load i32, ptr %3, align 4
  ret i32 %89
}