; Function Attrs: nounwind uwtable
define internal range(i32 -2147483648, 2) i32 @old_flac_header(ptr noundef readonly captures(none) %0, i32 noundef %1) #0 {
  %3 = alloca ptr, align 8
  %4 = alloca i32, align 4
  %5 = alloca ptr, align 8
  %6 = getelementptr inbounds nuw i8, ptr %0, i64 24
  %7 = load ptr, ptr %6, align 8, !tbaa !4
  %8 = getelementptr inbounds nuw i8, ptr %0, i64 48
  %9 = load ptr, ptr %8, align 8, !tbaa !28
  %10 = sext i32 %1 to i64
  %11 = getelementptr inbounds ptr, ptr %9, i64 %10
  %12 = load ptr, ptr %11, align 8, !tbaa !29
  %13 = load ptr, ptr %7, align 8, !tbaa !24
  %14 = getelementptr inbounds %struct.ogg_stream, ptr %13, i64 %10
  %15 = tail call ptr @av_parser_init(i32 noundef 86028) #7
  call void @llvm.lifetime.start.p0(i64 8, ptr nonnull %3) #7
  call void @llvm.lifetime.start.p0(i64 4, ptr nonnull %4) #7
  call void @llvm.lifetime.start.p0(i64 8, ptr nonnull %5) #7
  %.not = icmp eq ptr %15, null
  br i1 %.not, label %40, label %16

16:                                               ; preds = %2
  %17 = getelementptr inbounds nuw i8, ptr %12, i64 16
  %18 = load ptr, ptr %17, align 8, !tbaa !37
  store i32 1, ptr %18, align 8, !tbaa !44
  %19 = getelementptr inbounds nuw i8, ptr %18, i64 4
  store i32 86028, ptr %19, align 4, !tbaa !47
  %20 = tail call ptr @avcodec_alloc_context3(ptr noundef null) #7
  store ptr %20, ptr %3, align 8, !tbaa !62
  %.not24 = icmp eq ptr %20, null
  br i1 %.not24, label %39, label %21

21:                                               ; preds = %16
  %22 = load ptr, ptr %17, align 8, !tbaa !37
  %23 = tail call i32 @avcodec_parameters_to_context(ptr noundef nonnull %20, ptr noundef %22) #7
  %24 = icmp slt i32 %23, 0
  br i1 %24, label %39, label %25

25:                                               ; preds = %21
  %26 = getelementptr inbounds nuw i8, ptr %15, i64 184
  store i32 1, ptr %26, align 8, !tbaa !63
  %27 = load ptr, ptr %14, align 8, !tbaa !31
  %28 = getelementptr inbounds nuw i8, ptr %14, i64 16
  %29 = load i32, ptr %28, align 8, !tbaa !34
  %30 = zext i32 %29 to i64
  %31 = getelementptr inbounds nuw i8, ptr %27, i64 %30
  %32 = getelementptr inbounds nuw i8, ptr %14, i64 20
  %33 = load i32, ptr %32, align 4, !tbaa !36
  %34 = call i32 @av_parser_parse2(ptr noundef nonnull %15, ptr noundef nonnull %20, ptr noundef nonnull %5, ptr noundef nonnull %4, ptr noundef %31, i32 noundef %33, i64 noundef -9223372036854775808, i64 noundef -9223372036854775808, i64 noundef -1) #7
  call void @av_parser_close(ptr noundef nonnull %15) #7
  %35 = load ptr, ptr %3, align 8, !tbaa !62
  %36 = getelementptr inbounds nuw i8, ptr %35, i64 344
  %37 = load i32, ptr %36, align 8, !tbaa !66
  %.not25 = icmp eq i32 %37, 0
  br i1 %.not25, label %.sink.split, label %38

38:                                               ; preds = %25
  call void @avpriv_set_pts_info(ptr noundef nonnull %12, i32 noundef 64, i32 noundef 1, i32 noundef %37) #7
  br label %.sink.split

39:                                               ; preds = %16, %21
  %.0 = phi i32 [ %23, %21 ], [ -12, %16 ]
  tail call void @av_parser_close(ptr noundef nonnull %15) #7
  br label %.sink.split

.sink.split:                                      ; preds = %25, %38, %39
  %.019.ph = phi i32 [ 0, %38 ], [ %.0, %39 ], [ 1, %25 ]
  call void @avcodec_free_context(ptr noundef nonnull %3) #7
  br label %40

40:                                               ; preds = %.sink.split, %2
  %.019 = phi i32 [ -1, %2 ], [ %.019.ph, %.sink.split ]
  call void @llvm.lifetime.end.p0(i64 8, ptr nonnull %5) #7
  call void @llvm.lifetime.end.p0(i64 4, ptr nonnull %4) #7
  call void @llvm.lifetime.end.p0(i64 8, ptr nonnull %3) #7
  ret i32 %.019
}